target datalayout = "e-m:e-p270:32:32-p271:32:32-p272:64:64-i64:64-i128:128-f80:128-n8:16:32:64-S128"
target triple = "x86_64-unknown-linux-gnu"

; Function Attrs: nounwind uwtable
define internal void @set_errno(i32 noundef %errnum) #0 {
entry:
  %errnum.addr = alloca i32, align 4
  store i32 %errnum, ptr %errnum.addr, align 4
  %0 = load i32, ptr %errnum.addr, align 4
  %call = call ptr @__errno_location() #9
  store i32 %0, ptr %call, align 4
  ret void
}

; Function Attrs: nounwind uwtable
define hidden i64 @malloc_strtoumax(ptr noalias noundef %nptr, ptr noalias noundef %endptr, i32 noundef %base) #0 {
entry:
  %nptr.addr = alloca ptr, align 8
  %endptr.addr = alloca ptr, align 8
  %base.addr = alloca i32, align 4
  %ret = alloca i64, align 8
  %digit = alloca i64, align 8
  %b = alloca i32, align 4
  %neg = alloca i8, align 1
  %p = alloca ptr, align 8
  %ns = alloca ptr, align 8
  %pret = alloca i64, align 8
  store ptr %nptr, ptr %nptr.addr, align 8
  store ptr %endptr, ptr %endptr.addr, align 8
  store i32 %base, ptr %base.addr, align 4
  %0 = load ptr, ptr %nptr.addr, align 8
  store ptr %0, ptr %p, align 8
  %1 = load i32, ptr %base.addr, align 4
  %cmp = icmp slt i32 %1, 0
  br i1 %cmp, label %if.then, label %lor.lhs.false

lor.lhs.false:                                    ; preds = %entry
  %2 = load i32, ptr %base.addr, align 4
  %cmp1 = icmp eq i32 %2, 1
  br i1 %cmp1, label %if.then, label %lor.lhs.false2

lor.lhs.false2:                                   ; preds = %lor.lhs.false
  %3 = load i32, ptr %base.addr, align 4
  %cmp3 = icmp sgt i32 %3, 36
  br i1 %cmp3, label %if.then, label %if.end

if.then:                                          ; preds = %lor.lhs.false2, %lor.lhs.false, %entry
  %4 = load ptr, ptr %p, align 8
  store ptr %4, ptr %ns, align 8
  call void @set_errno(i32 noundef 22)
  store i64 -1, ptr %ret, align 8
  br label %label_return

if.end:                                           ; preds = %lor.lhs.false2
  %5 = load i32, ptr %base.addr, align 4
  store i32 %5, ptr %b, align 4
  store i8 0, ptr %neg, align 1
  br label %while.body

while.body:                                       ; preds = %sw.epilog, %if.end
  %6 = load ptr, ptr %p, align 8
  %7 = load i8, ptr %6, align 1
  %conv = sext i8 %7 to i32
  switch i32 %conv, label %sw.default [
    i32 9, label %sw.bb
    i32 10, label %sw.bb
    i32 11, label %sw.bb
    i32 12, label %sw.bb
    i32 13, label %sw.bb
    i32 32, label %sw.bb
    i32 45, label %sw.bb4
    i32 43, label %sw.bb5
  ]

sw.bb:                                            ; preds = %while.body, %while.body, %while.body, %while.body, %while.body, %while.body
  %8 = load ptr, ptr %p, align 8
  %incdec.ptr = getelementptr inbounds i8, ptr %8, i32 1
  store ptr %incdec.ptr, ptr %p, align 8
  br label %sw.epilog

sw.bb4:                                           ; preds = %while.body
  store i8 1, ptr %neg, align 1
  br label %sw.bb5

sw.bb5:                                           ; preds = %sw.bb4, %while.body
  %9 = load ptr, ptr %p, align 8
  %incdec.ptr6 = getelementptr inbounds i8, ptr %9, i32 1
  store ptr %incdec.ptr6, ptr %p, align 8
  br label %sw.default

sw.default:                                       ; preds = %sw.bb5, %while.body
  br label %label_prefix

sw.epilog:                                        ; preds = %sw.bb
  br label %while.body

label_prefix:                                     ; preds = %sw.default
  %10 = load ptr, ptr %p, align 8
  store ptr %10, ptr %ns, align 8
  %11 = load ptr, ptr %p, align 8
  %12 = load i8, ptr %11, align 1
  %conv7 = sext i8 %12 to i32
  %cmp8 = icmp eq i32 %conv7, 48
  br i1 %cmp8, label %if.then10, label %if.end39

if.then10:                                        ; preds = %label_prefix
  %13 = load ptr, ptr %p, align 8
  %arrayidx = getelementptr inbounds i8, ptr %13, i64 1
  %14 = load i8, ptr %arrayidx, align 1
  %conv11 = sext i8 %14 to i32
  switch i32 %conv11, label %sw.default36 [
    i32 48, label %sw.bb12
    i32 49, label %sw.bb12
    i32 50, label %sw.bb12
    i32 51, label %sw.bb12
    i32 52, label %sw.bb12
    i32 53, label %sw.bb12
    i32 54, label %sw.bb12
    i32 55, label %sw.bb12
    i32 88, label %sw.bb22
    i32 120, label %sw.bb22
  ]

sw.bb12:                                          ; preds = %if.then10, %if.then10, %if.then10, %if.then10, %if.then10, %if.then10, %if.then10, %if.then10
  %15 = load i32, ptr %b, align 4
  %cmp13 = icmp eq i32 %15, 0
  br i1 %cmp13, label %if.then15, label %if.end16

if.then15:                                        ; preds = %sw.bb12
  store i32 8, ptr %b, align 4
  br label %if.end16

if.end16:                                         ; preds = %if.then15, %sw.bb12
  %16 = load i32, ptr %b, align 4
  %cmp17 = icmp eq i32 %16, 8
  br i1 %cmp17, label %if.then19, label %if.end21

if.then19:                                        ; preds = %if.end16
  %17 = load ptr, ptr %p, align 8
  %incdec.ptr20 = getelementptr inbounds i8, ptr %17, i32 1
  store ptr %incdec.ptr20, ptr %p, align 8
  br label %if.end21

if.end21:                                         ; preds = %if.then19, %if.end16
  br label %sw.epilog38

sw.bb22:                                          ; preds = %if.then10, %if.then10
  %18 = load ptr, ptr %p, align 8
  %arrayidx23 = getelementptr inbounds i8, ptr %18, i64 2
  %19 = load i8, ptr %arrayidx23, align 1
  %conv24 = sext i8 %19 to i32
  switch i32 %conv24, label %sw.default34 [
    i32 48, label %sw.bb25
    i32 49, label %sw.bb25
    i32 50, label %sw.bb25
    i32 51, label %sw.bb25
    i32 52, label %sw.bb25
    i32 53, label %sw.bb25
    i32 54, label %sw.bb25
    i32 55, label %sw.bb25
    i32 56, label %sw.bb25
    i32 57, label %sw.bb25
    i32 65, label %sw.bb25
    i32 66, label %sw.bb25
    i32 67, label %sw.bb25
    i32 68, label %sw.bb25
    i32 69, label %sw.bb25
    i32 70, label %sw.bb25
    i32 97, label %sw.bb25
    i32 98, label %sw.bb25
    i32 99, label %sw.bb25
    i32 100, label %sw.bb25
    i32 101, label %sw.bb25
    i32 102, label %sw.bb25
  ]

sw.bb25:                                          ; preds = %sw.bb22, %sw.bb22, %sw.bb22, %sw.bb22, %sw.bb22, %sw.bb22, %sw.bb22, %sw.bb22, %sw.bb22, %sw.bb22, %sw.bb22, %sw.bb22, %sw.bb22, %sw.bb22, %sw.bb22, %sw.bb22, %sw.bb22, %sw.bb22, %sw.bb22, %sw.bb22, %sw.bb22, %sw.bb22
  %20 = load i32, ptr %b, align 4
  %cmp26 = icmp eq i32 %20, 0
  br i1 %cmp26, label %if.then28, label %if.end29

if.then28:                                        ; preds = %sw.bb25
  store i32 16, ptr %b, align 4
  br label %if.end29

if.end29:                                         ; preds = %if.then28, %sw.bb25
  %21 = load i32, ptr %b, align 4
  %cmp30 = icmp eq i32 %21, 16
  br i1 %cmp30, label %if.then32, label %if.end33

if.then32:                                        ; preds = %if.end29
  %22 = load ptr, ptr %p, align 8
  %add.ptr = getelementptr inbounds i8, ptr %22, i64 2
  store ptr %add.ptr, ptr %p, align 8
  br label %if.end33

if.end33:                                         ; preds = %if.then32, %if.end29
  br label %sw.epilog35

sw.default34:                                     ; preds = %sw.bb22
  br label %sw.epilog35

sw.epilog35:                                      ; preds = %sw.default34, %if.end33
  br label %sw.epilog38

sw.default36:                                     ; preds = %if.then10
  %23 = load ptr, ptr %p, align 8
  %incdec.ptr37 = getelementptr inbounds i8, ptr %23, i32 1
  store ptr %incdec.ptr37, ptr %p, align 8
  store i64 0, ptr %ret, align 8
  br label %label_return

sw.epilog38:                                      ; preds = %sw.epilog35, %if.end21
  br label %if.end39

if.end39:                                         ; preds = %sw.epilog38, %label_prefix
  %24 = load i32, ptr %b, align 4
  %cmp40 = icmp eq i32 %24, 0
  br i1 %cmp40, label %if.then42, label %if.end43

if.then42:                                        ; preds = %if.end39
  store i32 10, ptr %b, align 4
  br label %if.end43

if.end43:                                         ; preds = %if.then42, %if.end39
  store i64 0, ptr %ret, align 8
  br label %while.cond

while.cond:                                       ; preds = %if.end91, %if.end43
  %25 = load ptr, ptr %p, align 8
  %26 = load i8, ptr %25, align 1
  %conv44 = sext i8 %26 to i32
  %cmp45 = icmp sge i32 %conv44, 48
  br i1 %cmp45, label %land.lhs.true, label %lor.lhs.false56

land.lhs.true:                                    ; preds = %while.cond
  %27 = load ptr, ptr %p, align 8
  %28 = load i8, ptr %27, align 1
  %conv47 = sext i8 %28 to i32
  %cmp48 = icmp sle i32 %conv47, 57
  br i1 %cmp48, label %land.lhs.true50, label %lor.lhs.false56

land.lhs.true50:                                  ; preds = %land.lhs.true
  %29 = load ptr, ptr %p, align 8
  %30 = load i8, ptr %29, align 1
  %conv51 = sext i8 %30 to i32
  %sub = sub nsw i32 %conv51, 48
  %conv52 = sext i32 %sub to i64
  store i64 %conv52, ptr %digit, align 8
  %31 = load i32, ptr %b, align 4
  %conv53 = zext i32 %31 to i64
  %cmp54 = icmp ult i64 %conv52, %conv53
  br i1 %cmp54, label %lor.end, label %lor.lhs.false56

lor.lhs.false56:                                  ; preds = %land.lhs.true50, %land.lhs.true, %while.cond
  %32 = load ptr, ptr %p, align 8
  %33 = load i8, ptr %32, align 1
  %conv57 = sext i8 %33 to i32
  %cmp58 = icmp sge i32 %conv57, 65
  br i1 %cmp58, label %land.lhs.true60, label %lor.rhs

land.lhs.true60:                                  ; preds = %lor.lhs.false56
  %34 = load ptr, ptr %p, align 8
  %35 = load i8, ptr %34, align 1
  %conv61 = sext i8 %35 to i32
  %cmp62 = icmp sle i32 %conv61, 90
  br i1 %cmp62, label %land.lhs.true64, label %lor.rhs

land.lhs.true64:                                  ; preds = %land.lhs.true60
  %36 = load ptr, ptr %p, align 8
  %37 = load i8, ptr %36, align 1
  %conv65 = sext i8 %37 to i32
  %add = add nsw i32 10, %conv65
  %sub66 = sub nsw i32 %add, 65
  %conv67 = sext i32 %sub66 to i64
  store i64 %conv67, ptr %digit, align 8
  %38 = load i32, ptr %b, align 4
  %conv68 = zext i32 %38 to i64
  %cmp69 = icmp ult i64 %conv67, %conv68
  br i1 %cmp69, label %lor.end, label %lor.rhs

lor.rhs:                                          ; preds = %land.lhs.true64, %land.lhs.true60, %lor.lhs.false56
  %39 = load ptr, ptr %p, align 8
  %40 = load i8, ptr %39, align 1
  %conv71 = sext i8 %40 to i32
  %cmp72 = icmp sge i32 %conv71, 97
  br i1 %cmp72, label %land.lhs.true74, label %land.end

land.lhs.true74:                                  ; preds = %lor.rhs
  %41 = load ptr, ptr %p, align 8
  %42 = load i8, ptr %41, align 1
  %conv75 = sext i8 %42 to i32
  %cmp76 = icmp sle i32 %conv75, 122
  br i1 %cmp76, label %land.rhs, label %land.end

land.rhs:                                         ; preds = %land.lhs.true74
  %43 = load ptr, ptr %p, align 8
  %44 = load i8, ptr %43, align 1
  %conv78 = sext i8 %44 to i32
  %add79 = add nsw i32 10, %conv78
  %sub80 = sub nsw i32 %add79, 97
  %conv81 = sext i32 %sub80 to i64
  store i64 %conv81, ptr %digit, align 8
  %45 = load i32, ptr %b, align 4
  %conv82 = zext i32 %45 to i64
  %cmp83 = icmp ult i64 %conv81, %conv82
  br label %land.end

land.end:                                         ; preds = %land.rhs, %land.lhs.true74, %lor.rhs
  %46 = phi i1 [ false, %land.lhs.true74 ], [ false, %lor.rhs ], [ %cmp83, %land.rhs ]
  br label %lor.end

lor.end:                                          ; preds = %land.end, %land.lhs.true64, %land.lhs.true50
  %47 = phi i1 [ true, %land.lhs.true64 ], [ true, %land.lhs.true50 ], [ %46, %land.end ]
  br i1 %47, label %while.body85, label %while.end

while.body85:                                     ; preds = %lor.end
  %48 = load i64, ptr %ret, align 8
  store i64 %48, ptr %pret, align 8
  %49 = load i32, ptr %b, align 4
  %conv86 = zext i32 %49 to i64
  %50 = load i64, ptr %ret, align 8
  %mul = mul i64 %50, %conv86
  store i64 %mul, ptr %ret, align 8
  %51 = load i64, ptr %digit, align 8
  %52 = load i64, ptr %ret, align 8
  %add87 = add i64 %52, %51
  store i64 %add87, ptr %ret, align 8
  %53 = load i64, ptr %ret, align 8
  %54 = load i64, ptr %pret, align 8
  %cmp88 = icmp ult i64 %53, %54
  br i1 %cmp88, label %if.then90, label %if.end91

if.then90:                                        ; preds = %while.body85
  call void @set_errno(i32 noundef 34)
  store i64 -1, ptr %ret, align 8
  br label %label_return

if.end91:                                         ; preds = %while.body85
  %55 = load ptr, ptr %p, align 8
  %incdec.ptr92 = getelementptr inbounds i8, ptr %55, i32 1
  store ptr %incdec.ptr92, ptr %p, align 8
  br label %while.cond, !llvm.loop !5

while.end:                                        ; preds = %lor.end
  %56 = load i8, ptr %neg, align 1
  %tobool = trunc i8 %56 to i1
  br i1 %tobool, label %if.then93, label %if.end95

if.then93:                                        ; preds = %while.end
  %57 = load i64, ptr %ret, align 8
  %sub94 = sub nsw i64 0, %57
  store i64 %sub94, ptr %ret, align 8
  br label %if.end95

if.end95:                                         ; preds = %if.then93, %while.end
  %58 = load ptr, ptr %p, align 8
  %59 = load ptr, ptr %ns, align 8
  %cmp96 = icmp eq ptr %58, %59
  br i1 %cmp96, label %if.then98, label %if.end99

if.then98:                                        ; preds = %if.end95
  call void @set_errno(i32 noundef 22)
  store i64 -1, ptr %ret, align 8
  br label %label_return

if.end99:                                         ; preds = %if.end95
  br label %label_return

label_return:                                     ; preds = %if.end99, %if.then98, %if.then90, %sw.default36, %if.then
  %60 = load ptr, ptr %endptr.addr, align 8
  %cmp100 = icmp ne ptr %60, null
  br i1 %cmp100, label %if.then102, label %if.end107

if.then102:                                       ; preds = %label_return
  %61 = load ptr, ptr %p, align 8
  %62 = load ptr, ptr %ns, align 8
  %cmp103 = icmp eq ptr %61, %62
  br i1 %cmp103, label %if.then105, label %if.else

if.then105:                                       ; preds = %if.then102
  %63 = load ptr, ptr %nptr.addr, align 8
  %64 = load ptr, ptr %endptr.addr, align 8
  store ptr %63, ptr %64, align 8
  br label %if.end106

if.else:                                          ; preds = %if.then102
  %65 = load ptr, ptr %p, align 8
  %66 = load ptr, ptr %endptr.addr, align 8
  store ptr %65, ptr %66, align 8
  br label %if.end106

if.end106:                                        ; preds = %if.else, %if.then105
  br label %if.end107

if.end107:                                        ; preds = %if.end106, %label_return
  %67 = load i64, ptr %ret, align 8
  ret i64 %67
}